; ModuleID = '57/396.c'
source_filename = "57/396.c"
target datalayout = "e-m:e-p270:32:32-p271:32:32-p272:64:64-i64:64-f80:128-n8:16:32:64-S128"
target triple = "x86_64-pc-linux-gnu"

@.str = private unnamed_addr constant [3 x i8] c"%d\00", align 1
@.str.1 = private unnamed_addr constant [3 x i8] c"%s\00", align 1
@.str.2 = private unnamed_addr constant [4 x i8] c"%s\0A\00", align 1

; Function Attrs: noinline nounwind uwtable
define dso_local i32 @main() #0 {
  %1 = alloca i32, align 4
  %2 = alloca [50 x [100 x i8]], align 16
  %3 = alloca i32, align 4
  %4 = alloca i32, align 4
  %5 = alloca [50 x i32], align 16
  %6 = alloca i32, align 4
  store i32 0, i32* %1, align 4
  %7 = call i32 (i8*, ...) @__isoc99_scanf(i8* getelementptr inbounds ([3 x i8], [3 x i8]* @.str, i64 0, i64 0), i32* %3)
  store i32 0, i32* %6, align 4
  br label %8

8:                                                ; preds = %147, %0
  %9 = load i32, i32* %6, align 4
  %10 = load i32, i32* %3, align 4
  %11 = icmp slt i32 %9, %10
  br i1 %11, label %12, label %150

12:                                               ; preds = %8
  %13 = load i32, i32* %6, align 4
  %14 = sext i32 %13 to i64
  %15 = getelementptr inbounds [50 x [100 x i8]], [50 x [100 x i8]]* %2, i64 0, i64 %14
  %16 = getelementptr inbounds [100 x i8], [100 x i8]* %15, i64 0, i64 0
  %17 = call i32 (i8*, ...) @__isoc99_scanf(i8* getelementptr inbounds ([3 x i8], [3 x i8]* @.str.1, i64 0, i64 0), i8* %16)
  %18 = load i32, i32* %6, align 4
  %19 = sext i32 %18 to i64
  %20 = getelementptr inbounds [50 x [100 x i8]], [50 x [100 x i8]]* %2, i64 0, i64 %19
  %21 = getelementptr inbounds [100 x i8], [100 x i8]* %20, i64 0, i64 0
  %22 = call i64 @strlen(i8* %21) #3
  %23 = trunc i64 %22 to i32
  %24 = load i32, i32* %6, align 4
  %25 = sext i32 %24 to i64
  %26 = getelementptr inbounds [50 x i32], [50 x i32]* %5, i64 0, i64 %25
  store i32 %23, i32* %26, align 4
  %27 = load i32, i32* %6, align 4
  %28 = sext i32 %27 to i64
  %29 = getelementptr inbounds [50 x i32], [50 x i32]* %5, i64 0, i64 %28
  %30 = load i32, i32* %29, align 4
  store i32 %30, i32* %4, align 4
  %31 = load i32, i32* %6, align 4
  %32 = sext i32 %31 to i64
  %33 = getelementptr inbounds [50 x [100 x i8]], [50 x [100 x i8]]* %2, i64 0, i64 %32
  %34 = load i32, i32* %4, align 4
  %35 = sub nsw i32 %34, 1
  %36 = sext i32 %35 to i64
  %37 = getelementptr inbounds [100 x i8], [100 x i8]* %33, i64 0, i64 %36
  %38 = load i8, i8* %37, align 1
  %39 = sext i8 %38 to i32
  %40 = icmp eq i32 %39, 114
  br i1 %40, label %41, label %65

41:                                               ; preds = %12
  %42 = load i32, i32* %6, align 4
  %43 = sext i32 %42 to i64
  %44 = getelementptr inbounds [50 x [100 x i8]], [50 x [100 x i8]]* %2, i64 0, i64 %43
  %45 = load i32, i32* %4, align 4
  %46 = sub nsw i32 %45, 2
  %47 = sext i32 %46 to i64
  %48 = getelementptr inbounds [100 x i8], [100 x i8]* %44, i64 0, i64 %47
  %49 = load i8, i8* %48, align 1
  %50 = sext i8 %49 to i32
  %51 = icmp eq i32 %50, 101
  br i1 %51, label %52, label %65

52:                                               ; preds = %41
  %53 = load i32, i32* %6, align 4
  %54 = sext i32 %53 to i64
  %55 = getelementptr inbounds [50 x [100 x i8]], [50 x [100 x i8]]* %2, i64 0, i64 %54
  %56 = load i32, i32* %4, align 4
  %57 = sub nsw i32 %56, 2
  %58 = sext i32 %57 to i64
  %59 = getelementptr inbounds [100 x i8], [100 x i8]* %55, i64 0, i64 %58
  store i8 0, i8* %59, align 1
  %60 = load i32, i32* %6, align 4
  %61 = sext i32 %60 to i64
  %62 = getelementptr inbounds [50 x [100 x i8]], [50 x [100 x i8]]* %2, i64 0, i64 %61
  %63 = getelementptr inbounds [100 x i8], [100 x i8]* %62, i64 0, i64 0
  %64 = call i32 (i8*, ...) @printf(i8* getelementptr inbounds ([4 x i8], [4 x i8]* @.str.2, i64 0, i64 0), i8* %63)
  br label %65

65:                                               ; preds = %52, %41, %12
  %66 = load i32, i32* %6, align 4
  %67 = sext i32 %66 to i64
  %68 = getelementptr inbounds [50 x [100 x i8]], [50 x [100 x i8]]* %2, i64 0, i64 %67
  %69 = load i32, i32* %4, align 4
  %70 = sub nsw i32 %69, 1
  %71 = sext i32 %70 to i64
  %72 = getelementptr inbounds [100 x i8], [100 x i8]* %68, i64 0, i64 %71
  %73 = load i8, i8* %72, align 1
  %74 = sext i8 %73 to i32
  %75 = icmp eq i32 %74, 121
  br i1 %75, label %76, label %100

76:                                               ; preds = %65
  %77 = load i32, i32* %6, align 4
  %78 = sext i32 %77 to i64
  %79 = getelementptr inbounds [50 x [100 x i8]], [50 x [100 x i8]]* %2, i64 0, i64 %78
  %80 = load i32, i32* %4, align 4
  %81 = sub nsw i32 %80, 2
  %82 = sext i32 %81 to i64
  %83 = getelementptr inbounds [100 x i8], [100 x i8]* %79, i64 0, i64 %82
  %84 = load i8, i8* %83, align 1
  %85 = sext i8 %84 to i32
  %86 = icmp eq i32 %85, 108
  br i1 %86, label %87, label %100

87:                                               ; preds = %76
  %88 = load i32, i32* %6, align 4
  %89 = sext i32 %88 to i64
  %90 = getelementptr inbounds [50 x [100 x i8]], [50 x [100 x i8]]* %2, i64 0, i64 %89
  %91 = load i32, i32* %4, align 4
  %92 = sub nsw i32 %91, 2
  %93 = sext i32 %92 to i64
  %94 = getelementptr inbounds [100 x i8], [100 x i8]* %90, i64 0, i64 %93
  store i8 0, i8* %94, align 1
  %95 = load i32, i32* %6, align 4
  %96 = sext i32 %95 to i64
  %97 = getelementptr inbounds [50 x [100 x i8]], [50 x [100 x i8]]* %2, i64 0, i64 %96
  %98 = getelementptr inbounds [100 x i8], [100 x i8]* %97, i64 0, i64 0
  %99 = call i32 (i8*, ...) @printf(i8* getelementptr inbounds ([4 x i8], [4 x i8]* @.str.2, i64 0, i64 0), i8* %98)
  br label %100

100:                                              ; preds = %87, %76, %65
  %101 = load i32, i32* %6, align 4
  %102 = sext i32 %101 to i64
  %103 = getelementptr inbounds [50 x [100 x i8]], [50 x [100 x i8]]* %2, i64 0, i64 %102
  %104 = load i32, i32* %4, align 4
  %105 = sub nsw i32 %104, 1
  %106 = sext i32 %105 to i64
  %107 = getelementptr inbounds [100 x i8], [100 x i8]* %103, i64 0, i64 %106
  %108 = load i8, i8* %107, align 1
  %109 = sext i8 %108 to i32
  %110 = icmp eq i32 %109, 103
  br i1 %110, label %111, label %146

111:                                              ; preds = %100
  %112 = load i32, i32* %6, align 4
  %113 = sext i32 %112 to i64
  %114 = getelementptr inbounds [50 x [100 x i8]], [50 x [100 x i8]]* %2, i64 0, i64 %113
  %115 = load i32, i32* %4, align 4
  %116 = sub nsw i32 %115, 2
  %117 = sext i32 %116 to i64
  %118 = getelementptr inbounds [100 x i8], [100 x i8]* %114, i64 0, i64 %117
  %119 = load i8, i8* %118, align 1
  %120 = sext i8 %119 to i32
  %121 = icmp eq i32 %120, 110
  br i1 %121, label %122, label %146

122:                                              ; preds = %111
  %123 = load i32, i32* %6, align 4
  %124 = sext i32 %123 to i64
  %125 = getelementptr inbounds [50 x [100 x i8]], [50 x [100 x i8]]* %2, i64 0, i64 %124
  %126 = load i32, i32* %4, align 4
  %127 = sub nsw i32 %126, 3
  %128 = sext i32 %127 to i64
  %129 = getelementptr inbounds [100 x i8], [100 x i8]* %125, i64 0, i64 %128
  %130 = load i8, i8* %129, align 1
  %131 = sext i8 %130 to i32
  %132 = icmp eq i32 %131, 105
  br i1 %132, label %133, label %146

133:                                              ; preds = %122
  %134 = load i32, i32* %6, align 4
  %135 = sext i32 %134 to i64
  %136 = getelementptr inbounds [50 x [100 x i8]], [50 x [100 x i8]]* %2, i64 0, i64 %135
  %137 = load i32, i32* %4, align 4
  %138 = sub nsw i32 %137, 3
  %139 = sext i32 %138 to i64
  %140 = getelementptr inbounds [100 x i8], [100 x i8]* %136, i64 0, i64 %139
  store i8 0, i8* %140, align 1
  %141 = load i32, i32* %6, align 4
  %142 = sext i32 %141 to i64
  %143 = getelementptr inbounds [50 x [100 x i8]], [50 x [100 x i8]]* %2, i64 0, i64 %142
  %144 = getelementptr inbounds [100 x i8], [100 x i8]* %143, i64 0, i64 0
  %145 = call i32 (i8*, ...) @printf(i8* getelementptr inbounds ([4 x i8], [4 x i8]* @.str.2, i64 0, i64 0), i8* %144)
  br label %146

146:                                              ; preds = %133, %122, %111, %100
  br label %147

147:                                              ; preds = %146
  %148 = load i32, i32* %6, align 4
  %149 = add nsw i32 %148, 1
  store i32 %149, i32* %6, align 4
  br label %8

150:                                              ; preds = %8
  ret i32 0
}

declare dso_local i32 @__isoc99_scanf(i8*, ...) #1

; Function Attrs: nounwind readonly
declare dso_local i64 @strlen(i8*) #2

declare dso_local i32 @printf(i8*, ...) #1


!llvm.module.flags = !{!0}
!llvm.ident = !{!1}

!0 = !{i32 1, !"wchar_size", i32 4}
!1 = !{!"clang version 10.0.0-4ubuntu1 "}
